target datalayout = "e-m:e-p270:32:32-p271:32:32-p272:64:64-i64:64-i128:128-f80:128-n8:16:32:64-S128"
target triple = "x86_64-pc-linux-gnu"

%struct.quic_info_data = type { i32, i32, ptr, i16, i32, i32, i32, %struct.quic_ciphers, %struct.quic_ciphers, %struct.quic_ciphers, %struct.quic_ciphers, %struct.quic_ciphers, %struct.quic_pp_state, %struct.quic_pp_state, [3 x i64], [3 x i64], ptr, ptr, %struct.quic_cid_item, %struct.quic_cid_item, %struct.quic_cid, ptr, ptr, ptr, ptr, ptr, ptr, ptr, ptr, ptr, ptr }
%struct.quic_ciphers = type { %struct.quic_hp_cipher, %struct.quic_pp_cipher }
%struct.quic_hp_cipher = type { ptr }
%struct.quic_pp_cipher = type { ptr, [12 x i8] }
%struct.quic_pp_state = type { ptr, [2 x %struct.quic_pp_cipher], %struct.quic_hp_cipher, i64, i8 }
%struct.quic_cid_item = type { ptr, %struct.quic_cid }
%struct.quic_cid = type { i8, [20 x i8], [16 x i8], i8, i64, i64 }
%struct._packet_info = type { ptr, ptr, i32, i32, %struct.nstime_t, %struct.nstime_t, %struct.nstime_t, i8, ptr, ptr, ptr, ptr, %struct._address, %struct._address, %struct._address, %struct._address, %struct._address, %struct._address, i32, ptr, i8, [3 x i8], %struct.anon, i32, i32, i32, i32, ptr, i8, ptr, ptr, i16, i16, i32, i32, i16, i32, i32, ptr, ptr, ptr, i8, i8, i16, i16, i16, i32, i16, i16, ptr, ptr, ptr, ptr, ptr, i32, i32 }
%struct.nstime_t = type { i64, i32 }
%struct._address = type { i32, i32, ptr, ptr }
%struct.anon = type { i8, [3 x i8] }
%struct.quic_endpoint = type { %struct._address, i16 }

@proto_quic = internal global i32 0, align 4
@quic_server_connections = internal global ptr null, align 8
@quic_client_connections = internal global ptr null, align 8
@quic_cid_lengths = internal global i32 0, align 4

; Function Attrs: inlinehint nounwind null_pointer_is_valid sspstrong uwtable
define internal zeroext i1 @addresses_equal(ptr noundef %0, ptr noundef %1) #10 {
  %3 = alloca i1, align 1
  %4 = alloca ptr, align 8
  %5 = alloca ptr, align 8
  store ptr %0, ptr %4, align 8
  store ptr %1, ptr %5, align 8
  %6 = load ptr, ptr %4, align 8
  %7 = getelementptr inbounds nuw %struct._address, ptr %6, i32 0, i32 0
  %8 = load i32, ptr %7, align 8
  %9 = load ptr, ptr %5, align 8
  %10 = getelementptr inbounds nuw %struct._address, ptr %9, i32 0, i32 0
  %11 = load i32, ptr %10, align 8
  %12 = icmp eq i32 %8, %11
  br i1 %12, label %13, label %40

13:                                               ; preds = %2
  %14 = load ptr, ptr %4, align 8
  %15 = getelementptr inbounds nuw %struct._address, ptr %14, i32 0, i32 1
  %16 = load i32, ptr %15, align 4
  %17 = load ptr, ptr %5, align 8
  %18 = getelementptr inbounds nuw %struct._address, ptr %17, i32 0, i32 1
  %19 = load i32, ptr %18, align 4
  %20 = icmp eq i32 %16, %19
  br i1 %20, label %21, label %40

21:                                               ; preds = %13
  %22 = load ptr, ptr %4, align 8
  %23 = getelementptr inbounds nuw %struct._address, ptr %22, i32 0, i32 1
  %24 = load i32, ptr %23, align 4
  %25 = icmp eq i32 %24, 0
  br i1 %25, label %39, label %26

26:                                               ; preds = %21
  %27 = load ptr, ptr %4, align 8
  %28 = getelementptr inbounds nuw %struct._address, ptr %27, i32 0, i32 2
  %29 = load ptr, ptr %28, align 8
  %30 = load ptr, ptr %5, align 8
  %31 = getelementptr inbounds nuw %struct._address, ptr %30, i32 0, i32 2
  %32 = load ptr, ptr %31, align 8
  %33 = load ptr, ptr %4, align 8
  %34 = getelementptr inbounds nuw %struct._address, ptr %33, i32 0, i32 1
  %35 = load i32, ptr %34, align 4
  %36 = sext i32 %35 to i64
  %37 = call i32 @memcmp(ptr noundef %29, ptr noundef %32, i64 noundef %36) #22
  %38 = icmp eq i32 %37, 0
  br i1 %38, label %39, label %40

39:                                               ; preds = %26, %21
  store i1 true, ptr %3, align 1
  br label %41

40:                                               ; preds = %26, %13, %2
  store i1 false, ptr %3, align 1
  br label %41

41:                                               ; preds = %40, %39
  %42 = load i1, ptr %3, align 1
  ret i1 %42
}

; Function Attrs: null_pointer_is_valid sspstrong uwtable
define internal zeroext i1 @quic_connection_from_server_endpoint(ptr noundef %0, ptr noundef %1) #0 {
  %3 = alloca i1, align 1
  %4 = alloca ptr, align 8
  %5 = alloca ptr, align 8
  %6 = alloca ptr, align 8
  %7 = alloca ptr, align 8
  %8 = alloca i32, align 4
  store ptr %0, ptr %4, align 8
  store ptr %1, ptr %5, align 8
  call void @llvm.lifetime.start.p0(i64 8, ptr %6) #19
  call void @llvm.lifetime.start.p0(i64 8, ptr %7) #19
  %9 = load ptr, ptr %5, align 8
  %10 = getelementptr inbounds nuw %struct.quic_info_data, ptr %9, i32 0, i32 2
  %11 = load ptr, ptr %10, align 8
  %12 = call ptr @wmem_list_head(ptr noundef %11)
  store ptr %12, ptr %7, align 8
  br label %13

13:                                               ; preds = %36, %2
  %14 = load ptr, ptr %7, align 8
  %15 = icmp ne ptr %14, null
  br i1 %15, label %17, label %16

16:                                               ; preds = %13
  store i32 2, ptr %8, align 4
  br label %39

17:                                               ; preds = %13
  %18 = load ptr, ptr %7, align 8
  %19 = call ptr @wmem_list_frame_data(ptr noundef %18)
  store ptr %19, ptr %6, align 8
  %20 = load ptr, ptr %6, align 8
  %21 = getelementptr inbounds nuw %struct.quic_endpoint, ptr %20, i32 0, i32 1
  %22 = load i16, ptr %21, align 8
  %23 = zext i16 %22 to i32
  %24 = load ptr, ptr %4, align 8
  %25 = getelementptr inbounds nuw %struct._packet_info, ptr %24, i32 0, i32 24
  %26 = load i32, ptr %25, align 4
  %27 = icmp eq i32 %23, %26
  br i1 %27, label %28, label %35

28:                                               ; preds = %17
  %29 = load ptr, ptr %6, align 8
  %30 = getelementptr inbounds nuw %struct.quic_endpoint, ptr %29, i32 0, i32 0
  %31 = load ptr, ptr %4, align 8
  %32 = getelementptr inbounds nuw %struct._packet_info, ptr %31, i32 0, i32 16
  %33 = call zeroext i1 @addresses_equal(ptr noundef %30, ptr noundef %32)
  br i1 %33, label %34, label %35

34:                                               ; preds = %28
  store i1 true, ptr %3, align 1
  store i32 1, ptr %8, align 4
  br label %39

35:                                               ; preds = %28, %17
  br label %36

36:                                               ; preds = %35
  %37 = load ptr, ptr %7, align 8
  %38 = call ptr @wmem_list_frame_next(ptr noundef %37)
  store ptr %38, ptr %7, align 8
  br label %13, !llvm.loop !23

39:                                               ; preds = %34, %16
  call void @llvm.lifetime.end.p0(i64 8, ptr %7) #19
  %40 = load i32, ptr %8, align 4
  switch i32 %40, label %42 [
    i32 2, label %41
  ]

41:                                               ; preds = %39
  store i1 false, ptr %3, align 1
  store i32 1, ptr %8, align 4
  br label %42

42:                                               ; preds = %41, %39
  call void @llvm.lifetime.end.p0(i64 8, ptr %6) #19
  %43 = load i1, ptr %3, align 1
  ret i1 %43
}

; Function Attrs: null_pointer_is_valid sspstrong uwtable
define internal ptr @quic_connection_from_conv(ptr noundef %0) #0 {
  %2 = alloca ptr, align 8
  %3 = alloca ptr, align 8
  %4 = alloca ptr, align 8
  %5 = alloca i32, align 4
  store ptr %0, ptr %3, align 8
  call void @llvm.lifetime.start.p0(i64 8, ptr %4) #19
  %6 = load ptr, ptr %3, align 8
  %7 = call ptr @find_conversation_pinfo(ptr noundef %6, i32 noundef 0)
  store ptr %7, ptr %4, align 8
  %8 = load ptr, ptr %4, align 8
  %9 = icmp ne ptr %8, null
  br i1 %9, label %10, label %14

10:                                               ; preds = %1
  %11 = load ptr, ptr %4, align 8
  %12 = load i32, ptr @proto_quic, align 4
  %13 = call ptr @conversation_get_proto_data(ptr noundef %11, i32 noundef %12)
  store ptr %13, ptr %2, align 8
  store i32 1, ptr %5, align 4
  br label %15

14:                                               ; preds = %1
  store ptr null, ptr %2, align 8
  store i32 1, ptr %5, align 4
  br label %15

15:                                               ; preds = %14, %10
  call void @llvm.lifetime.end.p0(i64 8, ptr %4) #19
  %16 = load ptr, ptr %2, align 8
  ret ptr %16
}

; Function Attrs: inlinehint nounwind null_pointer_is_valid sspstrong uwtable
define internal zeroext i1 @quic_cids_is_known_length(ptr noundef %0) #10 {
  %2 = alloca ptr, align 8
  store ptr %0, ptr %2, align 8
  %3 = load i32, ptr @quic_cid_lengths, align 4
  %4 = zext i32 %3 to i64
  %5 = load ptr, ptr %2, align 8
  %6 = getelementptr inbounds nuw %struct.quic_cid, ptr %5, i32 0, i32 0
  %7 = load i8, ptr %6, align 8
  %8 = zext i8 %7 to i32
  %9 = zext i32 %8 to i64
  %10 = shl i64 1, %9
  %11 = and i64 %4, %10
  %12 = icmp ne i64 %11, 0
  ret i1 %12
}

; Function Attrs: null_pointer_is_valid sspstrong uwtable
define internal ptr @quic_connection_find_dcid(ptr noundef %0, ptr noundef %1, ptr noundef %2) #0 {
  %4 = alloca ptr, align 8
  %5 = alloca ptr, align 8
  %6 = alloca ptr, align 8
  %7 = alloca ptr, align 8
  %8 = alloca ptr, align 8
  %9 = alloca ptr, align 8
  %10 = alloca i8, align 1
  %11 = alloca i32, align 4
  store ptr %0, ptr %5, align 8
  store ptr %1, ptr %6, align 8
  store ptr %2, ptr %7, align 8
  call void @llvm.lifetime.start.p0(i64 8, ptr %8) #19
  store ptr null, ptr %8, align 8
  call void @llvm.lifetime.start.p0(i64 8, ptr %9) #19
  call void @llvm.lifetime.start.p0(i64 1, ptr %10) #19
  store i8 0, ptr %10, align 1
  %12 = load ptr, ptr %6, align 8
  %13 = icmp ne ptr %12, null
  br i1 %13, label %14, label %49

14:                                               ; preds = %3
  %15 = load ptr, ptr %6, align 8
  %16 = getelementptr inbounds nuw %struct.quic_cid, ptr %15, i32 0, i32 0
  %17 = load i8, ptr %16, align 8
  %18 = zext i8 %17 to i32
  %19 = icmp sgt i32 %18, 0
  br i1 %19, label %20, label %49

20:                                               ; preds = %14
  %21 = load ptr, ptr %6, align 8
  %22 = call zeroext i1 @quic_cids_is_known_length(ptr noundef %21)
  br i1 %22, label %24, label %23

23:                                               ; preds = %20
  store ptr null, ptr %4, align 8
  store i32 1, ptr %11, align 4
  br label %67

24:                                               ; preds = %20
  %25 = load ptr, ptr @quic_client_connections, align 8
  %26 = load ptr, ptr %6, align 8
  %27 = call zeroext i1 @wmem_map_lookup_extended(ptr noundef %25, ptr noundef %26, ptr noundef %9, ptr noundef %8)
  br i1 %27, label %28, label %39

28:                                               ; preds = %24
  %29 = load ptr, ptr %7, align 8
  store i8 1, ptr %29, align 1
  %30 = load ptr, ptr @quic_server_connections, align 8
  %31 = load ptr, ptr %6, align 8
  %32 = call ptr @wmem_map_lookup(ptr noundef %30, ptr noundef %31)
  %33 = icmp ne ptr %32, null
  %34 = xor i1 %33, true
  %35 = xor i1 %34, true
  %36 = zext i1 %35 to i8
  store i8 %36, ptr %10, align 1
  %37 = load ptr, ptr %6, align 8
  %38 = load ptr, ptr %9, align 8
  call void @llvm.memcpy.p0.p0.i64(ptr align 8 %37, ptr align 8 %38, i64 56, i1 false)
  br label %48

39:                                               ; preds = %24
  %40 = load ptr, ptr @quic_server_connections, align 8
  %41 = load ptr, ptr %6, align 8
  %42 = call zeroext i1 @wmem_map_lookup_extended(ptr noundef %40, ptr noundef %41, ptr noundef %9, ptr noundef %8)
  br i1 %42, label %43, label %47

43:                                               ; preds = %39
  %44 = load ptr, ptr %7, align 8
  store i8 0, ptr %44, align 1
  %45 = load ptr, ptr %6, align 8
  %46 = load ptr, ptr %9, align 8
  call void @llvm.memcpy.p0.p0.i64(ptr align 8 %45, ptr align 8 %46, i64 56, i1 false)
  br label %47

47:                                               ; preds = %43, %39
  br label %48

48:                                               ; preds = %47, %28
  br label %56

49:                                               ; preds = %14, %3
  %50 = load ptr, ptr %5, align 8
  %51 = call ptr @quic_connection_from_conv(ptr noundef %50)
  store ptr %51, ptr %8, align 8
  %52 = load ptr, ptr %8, align 8
  %53 = icmp ne ptr %52, null
  br i1 %53, label %54, label %55

54:                                               ; preds = %49
  store i8 1, ptr %10, align 1
  br label %55

55:                                               ; preds = %54, %49
  br label %56

56:                                               ; preds = %55, %48
  %57 = load i8, ptr %10, align 1, !range !6, !noundef !7
  %58 = trunc i8 %57 to i1
  br i1 %58, label %59, label %65

59:                                               ; preds = %56
  %60 = load ptr, ptr %5, align 8
  %61 = load ptr, ptr %8, align 8
  %62 = call zeroext i1 @quic_connection_from_server_endpoint(ptr noundef %60, ptr noundef %61)
  %63 = load ptr, ptr %7, align 8
  %64 = zext i1 %62 to i8
  store i8 %64, ptr %63, align 1
  br label %65

65:                                               ; preds = %59, %56
  %66 = load ptr, ptr %8, align 8
  store ptr %66, ptr %4, align 8
  store i32 1, ptr %11, align 4
  br label %67

67:                                               ; preds = %65, %23
  call void @llvm.lifetime.end.p0(i64 1, ptr %10) #19
  call void @llvm.lifetime.end.p0(i64 8, ptr %9) #19
  call void @llvm.lifetime.end.p0(i64 8, ptr %8) #19
  %68 = load ptr, ptr %4, align 8
  ret ptr %68
}