; Function Attrs: null_pointer_is_valid sspstrong uwtable
define internal fastcc ptr @quic_connection_find_dcid(ptr noundef %0, ptr noundef %1, ptr noundef writeonly captures(none) %2) unnamed_addr #0 {
  %4 = alloca ptr, align 8
  %5 = alloca ptr, align 8
  call void @llvm.lifetime.start.p0(i64 8, ptr nonnull %4) #18
  store ptr null, ptr %4, align 8
  call void @llvm.lifetime.start.p0(i64 8, ptr nonnull %5) #18
  %.not = icmp eq ptr %1, null
  br i1 %.not, label %26, label %6

6:                                                ; preds = %3
  %7 = load i8, ptr %1, align 8
  %.not16 = icmp eq i8 %7, 0
  br i1 %.not16, label %26, label %8

8:                                                ; preds = %6
  %9 = load i32, ptr @quic_cid_lengths, align 4
  %10 = zext i32 %9 to i64
  %11 = zext nneg i8 %7 to i64
  %12 = shl nuw i64 1, %11
  %13 = and i64 %12, %10
  %.not22 = icmp eq i64 %13, 0
  br i1 %.not22, label %65, label %14

14:                                               ; preds = %8
  %15 = load ptr, ptr @quic_client_connections, align 8
  %16 = call zeroext i1 @wmem_map_lookup_extended(ptr noundef %15, ptr noundef nonnull %1, ptr noundef nonnull %5, ptr noundef nonnull %4)
  br i1 %16, label %17, label %21

17:                                               ; preds = %14
  store i8 1, ptr %2, align 1
  %18 = load ptr, ptr @quic_server_connections, align 8
  %19 = call ptr @wmem_map_lookup(ptr noundef %18, ptr noundef nonnull %1)
  %.not23 = icmp eq ptr %19, null
  %20 = load ptr, ptr %5, align 8
  call void @llvm.memcpy.p0.p0.i64(ptr noundef nonnull align 8 dereferenceable(56) %1, ptr noundef align 8 dereferenceable(56) %20, i64 56, i1 false)
  br i1 %.not23, label %.critedge, label %._crit_edge

._crit_edge:                                      ; preds = %17
  %.pre = load ptr, ptr %4, align 8
  br label %31

21:                                               ; preds = %14
  %22 = load ptr, ptr @quic_server_connections, align 8
  %23 = call zeroext i1 @wmem_map_lookup_extended(ptr noundef %22, ptr noundef nonnull %1, ptr noundef nonnull %5, ptr noundef nonnull %4)
  br i1 %23, label %24, label %.critedge

24:                                               ; preds = %21
  store i8 0, ptr %2, align 1
  %25 = load ptr, ptr %5, align 8
  call void @llvm.memcpy.p0.p0.i64(ptr noundef nonnull align 8 dereferenceable(56) %1, ptr noundef align 8 dereferenceable(56) %25, i64 56, i1 false)
  br label %.critedge

26:                                               ; preds = %6, %3
  %27 = tail call ptr @find_conversation_pinfo(ptr noundef %0, i32 noundef 0)
  %.not.i = icmp eq ptr %27, null
  br i1 %.not.i, label %.thread, label %28

.thread:                                          ; preds = %26
  store ptr null, ptr %4, align 8
  br label %.critedge

28:                                               ; preds = %26
  %29 = load i32, ptr @proto_quic, align 4
  %30 = tail call ptr @conversation_get_proto_data(ptr noundef nonnull %27, i32 noundef %29)
  store ptr %30, ptr %4, align 8
  %.not17.not = icmp eq ptr %30, null
  br i1 %.not17.not, label %.critedge, label %31

31:                                               ; preds = %._crit_edge, %28
  %32 = phi ptr [ %.pre, %._crit_edge ], [ %30, %28 ]
  %33 = getelementptr i8, ptr %32, i64 8
  %.val18 = load ptr, ptr %33, align 8
  %34 = call ptr @wmem_list_head(ptr noundef %.val18)
  %.not2.not.i = icmp eq ptr %34, null
  br i1 %.not2.not.i, label %quic_connection_from_server_endpoint.exit, label %.lr.ph.i

.lr.ph.i:                                         ; preds = %31
  %35 = getelementptr inbounds nuw i8, ptr %0, i64 284
  %36 = getelementptr inbounds nuw i8, ptr %0, i64 208
  %37 = getelementptr inbounds nuw i8, ptr %0, i64 212
  %38 = getelementptr inbounds nuw i8, ptr %0, i64 216
  br label %39

39:                                               ; preds = %addresses_equal.exit.i, %.lr.ph.i
  %.093.i = phi ptr [ %34, %.lr.ph.i ], [ %63, %addresses_equal.exit.i ]
  %40 = call ptr @wmem_list_frame_data(ptr noundef nonnull %.093.i)
  %41 = getelementptr inbounds nuw i8, ptr %40, i64 24
  %42 = load i16, ptr %41, align 8
  %43 = zext i16 %42 to i32
  %44 = load i32, ptr %35, align 4
  %45 = icmp eq i32 %44, %43
  br i1 %45, label %46, label %addresses_equal.exit.i

46:                                               ; preds = %39
  %47 = load i32, ptr %40, align 8
  %48 = load i32, ptr %36, align 8
  %49 = icmp eq i32 %47, %48
  br i1 %49, label %50, label %addresses_equal.exit.i

50:                                               ; preds = %46
  %51 = getelementptr inbounds nuw i8, ptr %40, i64 4
  %52 = load i32, ptr %51, align 4
  %53 = load i32, ptr %37, align 4
  %54 = icmp eq i32 %52, %53
  br i1 %54, label %55, label %addresses_equal.exit.i

55:                                               ; preds = %50
  %56 = icmp eq i32 %52, 0
  br i1 %56, label %quic_connection_from_server_endpoint.exit, label %57

57:                                               ; preds = %55
  %58 = getelementptr inbounds nuw i8, ptr %40, i64 8
  %59 = load ptr, ptr %58, align 8
  %60 = load ptr, ptr %38, align 8
  %61 = sext i32 %52 to i64
  %bcmp.i.i = call i32 @bcmp(ptr %59, ptr %60, i64 %61)
  %62 = icmp eq i32 %bcmp.i.i, 0
  br i1 %62, label %quic_connection_from_server_endpoint.exit, label %addresses_equal.exit.i

addresses_equal.exit.i:                           ; preds = %57, %50, %46, %39
  %63 = call ptr @wmem_list_frame_next(ptr noundef nonnull %.093.i)
  %.not.not.i = icmp eq ptr %63, null
  br i1 %.not.not.i, label %quic_connection_from_server_endpoint.exit, label %39, !llvm.loop !13

quic_connection_from_server_endpoint.exit:        ; preds = %55, %57, %addresses_equal.exit.i, %31
  %.not.lcssa.i = phi i8 [ 0, %31 ], [ 0, %addresses_equal.exit.i ], [ 1, %57 ], [ 1, %55 ]
  store i8 %.not.lcssa.i, ptr %2, align 1
  br label %.critedge

.critedge:                                        ; preds = %.thread, %17, %24, %21, %quic_connection_from_server_endpoint.exit, %28
  %64 = load ptr, ptr %4, align 8
  br label %65

65:                                               ; preds = %8, %.critedge
  %.014 = phi ptr [ %64, %.critedge ], [ null, %8 ]
  call void @llvm.lifetime.end.p0(i64 8, ptr nonnull %5) #18
  call void @llvm.lifetime.end.p0(i64 8, ptr nonnull %4) #18
  ret ptr %.014
}